target datalayout = "e-m:e-p270:32:32-p271:32:32-p272:64:64-i64:64-i128:128-f80:128-n8:16:32:64-S128"
target triple = "x86_64-pc-linux-gnu"

; Function Attrs: nounwind uwtable
define internal i32 @aes_crypt_xts_wrap(ptr noundef %0, i32 noundef %1, i64 noundef %2, ptr noundef %3, ptr noundef %4, ptr noundef %5) #0 {
  %7 = alloca i32, align 4
  %8 = alloca ptr, align 8
  %9 = alloca i32, align 4
  %10 = alloca i64, align 8
  %11 = alloca ptr, align 8
  %12 = alloca ptr, align 8
  %13 = alloca ptr, align 8
  %14 = alloca ptr, align 8
  %15 = alloca i32, align 4
  %16 = alloca i32, align 4
  store ptr %0, ptr %8, align 8, !tbaa !3
  store i32 %1, ptr %9, align 4, !tbaa !7
  store i64 %2, ptr %10, align 8, !tbaa !11
  store ptr %3, ptr %11, align 8, !tbaa !9
  store ptr %4, ptr %12, align 8, !tbaa !9
  store ptr %5, ptr %13, align 8, !tbaa !9
  call void @llvm.lifetime.start.p0(i64 8, ptr %14) #5
  %17 = load ptr, ptr %8, align 8, !tbaa !3
  store ptr %17, ptr %14, align 8, !tbaa !29
  call void @llvm.lifetime.start.p0(i64 4, ptr %15) #5
  %18 = load i32, ptr %9, align 4, !tbaa !7
  switch i32 %18, label %21 [
    i32 1, label %19
    i32 0, label %20
  ]

19:                                               ; preds = %6
  store i32 1, ptr %15, align 4, !tbaa !7
  br label %22

20:                                               ; preds = %6
  store i32 0, ptr %15, align 4, !tbaa !7
  br label %22

21:                                               ; preds = %6
  store i32 -24832, ptr %7, align 4
  store i32 1, ptr %16, align 4
  br label %30

22:                                               ; preds = %20, %19
  %23 = load ptr, ptr %14, align 8, !tbaa !29
  %24 = load i32, ptr %15, align 4, !tbaa !7
  %25 = load i64, ptr %10, align 8, !tbaa !11
  %26 = load ptr, ptr %11, align 8, !tbaa !9
  %27 = load ptr, ptr %12, align 8, !tbaa !9
  %28 = load ptr, ptr %13, align 8, !tbaa !9
  %29 = call i32 @mbedtls_aes_crypt_xts(ptr noundef %23, i32 noundef %24, i64 noundef %25, ptr noundef %26, ptr noundef %27, ptr noundef %28)
  store i32 %29, ptr %7, align 4
  store i32 1, ptr %16, align 4
  br label %30

30:                                               ; preds = %22, %21
  call void @llvm.lifetime.end.p0(i64 4, ptr %15) #5
  call void @llvm.lifetime.end.p0(i64 8, ptr %14) #5
  %31 = load i32, ptr %7, align 4
  ret i32 %31
}