; Function Attrs: nounwind uwtable
define internal i32 @aes_crypt_xts_wrap(ptr noundef %0, i32 noundef %1, i64 noundef %2, ptr noundef %3, ptr noundef %4, ptr noundef %5) #0 {
  %switch = icmp ult i32 %1, 2
  br i1 %switch, label %7, label %9

7:                                                ; preds = %6
  %8 = tail call i32 @mbedtls_aes_crypt_xts(ptr noundef %0, i32 noundef %1, i64 noundef %2, ptr noundef %3, ptr noundef %4, ptr noundef %5) #4
  br label %9

9:                                                ; preds = %6, %7
  %.08 = phi i32 [ %8, %7 ], [ -24832, %6 ]
  ret i32 %.08
}